target datalayout = "e-m:e-p270:32:32-p271:32:32-p272:64:64-i64:64-i128:128-f80:128-n8:16:32:64-S128"
target triple = "x86_64-pc-linux-gnu"

; Function Attrs: nounwind uwtable
define hidden i32 @dissect_blocks(ptr noundef %0, i32 noundef %1, ptr noundef %2, ptr noundef %3, ptr noundef %4) #0 {
  %6 = alloca ptr, align 8
  %7 = alloca i32, align 4
  %8 = alloca ptr, align 8
  %9 = alloca ptr, align 8
  %10 = alloca ptr, align 8
  %11 = alloca i16, align 2
  %12 = alloca i32, align 4
  %13 = alloca ptr, align 8
  store ptr %0, ptr %6, align 8
  store i32 %1, ptr %7, align 4
  store ptr %2, ptr %8, align 8
  store ptr %3, ptr %9, align 8
  store ptr %4, ptr %10, align 8
  store i16 0, ptr %11, align 2
  store ptr null, ptr %13, align 8
  br label %14

14:                                               ; preds = %19, %5
  %15 = load ptr, ptr %6, align 8
  %16 = call i32 @tvb_captured_length(ptr noundef %15)
  %17 = load i32, ptr %7, align 4
  %18 = icmp ugt i32 %16, %17
  br i1 %18, label %19, label %28

19:                                               ; preds = %14
  %20 = load ptr, ptr %6, align 8
  %21 = load i32, ptr %7, align 4
  %22 = load ptr, ptr %8, align 8
  %23 = load ptr, ptr %9, align 8
  %24 = load ptr, ptr %10, align 8
  %25 = call i32 @dissect_block(ptr noundef %20, i32 noundef %21, ptr noundef %22, ptr noundef %23, ptr noundef %24, ptr noundef %11, ptr noundef %12, ptr noundef %13)
  store i32 %25, ptr %7, align 4
  %26 = load i16, ptr %11, align 2
  %27 = add i16 %26, 1
  store i16 %27, ptr %11, align 2
  br label %14, !llvm.loop !4

28:                                               ; preds = %14
  %29 = load ptr, ptr %13, align 8
  %30 = icmp ne ptr %29, null
  br i1 %30, label %31, label %36

31:                                               ; preds = %28
  %32 = load ptr, ptr %6, align 8
  %33 = load ptr, ptr %8, align 8
  %34 = load ptr, ptr %9, align 8
  %35 = load ptr, ptr %13, align 8
  call void @pnio_ar_info(ptr noundef %32, ptr noundef %33, ptr noundef %34, ptr noundef %35)
  br label %36

36:                                               ; preds = %31, %28
  %37 = load i32, ptr %7, align 4
  ret i32 %37
}