; Function Attrs: nounwind uwtable
define hidden i32 @dissect_blocks(ptr noundef %0, i32 noundef %1, ptr noundef %2, ptr noundef %3, ptr noundef %4) local_unnamed_addr #0 {
  %6 = alloca i16, align 2
  %7 = alloca i32, align 4
  %8 = alloca ptr, align 8
  store i16 0, ptr %6, align 2
  store ptr null, ptr %8, align 8
  %9 = tail call i32 @tvb_captured_length(ptr noundef %0) #11
  %10 = icmp ugt i32 %9, %1
  br i1 %10, label %.lr.ph, label %._crit_edge.thread

.lr.ph:                                           ; preds = %5, %.lr.ph
  %.011 = phi i32 [ %11, %.lr.ph ], [ %1, %5 ]
  %11 = call fastcc i32 @dissect_block(ptr noundef %0, i32 noundef %.011, ptr noundef %2, ptr noundef %3, ptr noundef %4, ptr noundef %6, ptr noundef %7, ptr noundef %8)
  %12 = load i16, ptr %6, align 2
  %13 = add i16 %12, 1
  store i16 %13, ptr %6, align 2
  %14 = call i32 @tvb_captured_length(ptr noundef %0) #11
  %15 = icmp ugt i32 %14, %11
  br i1 %15, label %.lr.ph, label %._crit_edge, !llvm.loop !4

._crit_edge:                                      ; preds = %.lr.ph
  %.pre = load ptr, ptr %8, align 8
  %.not = icmp eq ptr %.pre, null
  br i1 %.not, label %._crit_edge.thread, label %16

16:                                               ; preds = %._crit_edge
  call fastcc void @pnio_ar_info(ptr noundef %0, ptr noundef %2, ptr noundef %3, ptr noundef %.pre)
  br label %._crit_edge.thread

._crit_edge.thread:                               ; preds = %5, %16, %._crit_edge
  %.0.lcssa14 = phi i32 [ %11, %16 ], [ %11, %._crit_edge ], [ %1, %5 ]
  ret i32 %.0.lcssa14
}